; Function Attrs: mustprogress uwtable
define void @_ZN5faiss9IndexHNSWC2EPNS_5IndexEi(ptr noundef nonnull align 8 dereferenceable(5202) initializes((0, 12), (16, 26), (28, 36)) %0, ptr noundef %1, i32 noundef %2) unnamed_addr #1 align 2 personality ptr @__gxx_personality_v0 {
  %4 = getelementptr inbounds nuw i8, ptr %1, i64 8
  %5 = load i32, ptr %4, align 8, !tbaa !54
  %6 = getelementptr inbounds nuw i8, ptr %1, i64 28
  %7 = load i32, ptr %6, align 4, !tbaa !98
  %8 = getelementptr inbounds nuw i8, ptr %0, i64 8
  store i32 %5, ptr %8, align 8, !tbaa !54
  %9 = getelementptr inbounds nuw i8, ptr %0, i64 16
  store i64 0, ptr %9, align 8, !tbaa !46
  %10 = getelementptr inbounds nuw i8, ptr %0, i64 24
  store i8 0, ptr %10, align 8, !tbaa !47
  %11 = getelementptr inbounds nuw i8, ptr %0, i64 25
  store i8 1, ptr %11, align 1, !tbaa !43
  %12 = getelementptr inbounds nuw i8, ptr %0, i64 28
  store i32 %7, ptr %12, align 4, !tbaa !98
  %13 = getelementptr inbounds nuw i8, ptr %0, i64 32
  store float 0.000000e+00, ptr %13, align 8, !tbaa !142
  store ptr getelementptr inbounds nuw inrange(-16, 184) (i8, ptr @_ZTVN5faiss9IndexHNSWE, i64 16), ptr %0, align 8, !tbaa !41
  %14 = getelementptr inbounds nuw i8, ptr %0, i64 40
  invoke void @_ZN5faiss4HNSWC1Ei(ptr noundef nonnull align 8 dereferenceable(5142) %14, i32 noundef %2)
          to label %15 unwind label %20

15:                                               ; preds = %3
  %16 = getelementptr inbounds nuw i8, ptr %0, i64 5184
  store i8 0, ptr %16, align 8, !tbaa !124
  %17 = getelementptr inbounds nuw i8, ptr %0, i64 5192
  store ptr %1, ptr %17, align 8, !tbaa !4
  %18 = getelementptr inbounds nuw i8, ptr %0, i64 5200
  store i8 1, ptr %18, align 8, !tbaa !70
  %19 = getelementptr inbounds nuw i8, ptr %0, i64 5201
  store i8 0, ptr %19, align 1, !tbaa !143
  ret void

20:                                               ; preds = %3
  %21 = landingpad { ptr, i32 }
          cleanup
  tail call void @_ZN5faiss5IndexD2Ev(ptr noundef nonnull align 8 dereferenceable(36) %0) #13
  resume { ptr, i32 } %21
}